target datalayout = "e-m:e-p270:32:32-p271:32:32-p272:64:64-i64:64-i128:128-f80:128-n8:16:32:64-S128"
target triple = "x86_64-pc-linux-gnu"

%"struct.cv::StereoSGBMParams" = type { i32, i32, i32, i32, i32, i32, i32, i32, i32, i32, i32 }
%"class.cv::Mat" = type { i32, i32, i32, i32, ptr, ptr, ptr, ptr, ptr, ptr, %"struct.cv::MatSize", %"struct.cv::MatStep" }
%"struct.cv::MatSize" = type { ptr }
%"struct.cv::MatStep" = type { ptr, [2 x i64] }
%"struct.cv::Ptr" = type { %"class.std::shared_ptr" }
%"class.std::shared_ptr" = type { %"class.std::__shared_ptr" }
%"class.std::__shared_ptr" = type { ptr, %"class.std::__shared_count" }
%"class.std::__shared_count" = type { ptr }
%"class.cv::StereoSGBMImpl" = type { %"class.cv::StereoSGBM", %"struct.cv::StereoSGBMParams", %"class.cv::Mat" }
%"class.cv::StereoSGBM" = type { %"class.cv::StereoMatcher" }
%"class.cv::StereoMatcher" = type { %"class.cv::Algorithm" }
%"class.cv::Algorithm" = type { ptr }
%"struct.cv::has_custom_delete" = type { i8 }

; Function Attrs: mustprogress nounwind uwtable
define linkonce_odr hidden void @_ZNSt12__shared_ptrIN2cv10StereoSGBMELN9__gnu_cxx12_Lock_policyE2EE31_M_enable_shared_from_this_withINS0_14StereoSGBMImplES6_EENSt9enable_ifIXntsr15__has_esft_baseIT0_EE5valueEvE4typeEPT_(ptr noundef nonnull align 8 dereferenceable(16) %0, ptr noundef %1) #7 comdat align 2 {
  %3 = alloca ptr, align 8
  %4 = alloca ptr, align 8
  store ptr %0, ptr %3, align 8, !tbaa !408
  store ptr %1, ptr %4, align 8, !tbaa !135
  ret void
}

; Function Attrs: mustprogress uwtable
define linkonce_odr hidden void @_ZNSt14__shared_countILN9__gnu_cxx12_Lock_policyE2EEC2IPN2cv14StereoSGBMImplEEET_St17integral_constantIbLb0EE(ptr noundef nonnull align 8 dereferenceable(8) %0, ptr noundef %1) unnamed_addr #4 comdat align 2 {
  %3 = alloca ptr, align 8
  %4 = alloca ptr, align 8
  store ptr %0, ptr %3, align 8, !tbaa !412
  store ptr %1, ptr %4, align 8, !tbaa !135
  %5 = load ptr, ptr %3, align 8
  %6 = load ptr, ptr %4, align 8, !tbaa !135
  call void @_ZNSt14__shared_countILN9__gnu_cxx12_Lock_policyE2EEC2IPN2cv14StereoSGBMImplEEET_(ptr noundef nonnull align 8 dereferenceable(8) %5, ptr noundef %6)
  ret void
}

; Function Attrs: mustprogress uwtable
define linkonce_odr hidden void @_ZNSt12__shared_ptrIN2cv10StereoSGBMELN9__gnu_cxx12_Lock_policyE2EEC2INS0_14StereoSGBMImplEvEEPT_(ptr noundef nonnull align 8 dereferenceable(16) %0, ptr noundef %1) unnamed_addr #4 comdat align 2 {
  %3 = alloca ptr, align 8
  %4 = alloca ptr, align 8
  store ptr %0, ptr %3, align 8, !tbaa !408
  store ptr %1, ptr %4, align 8, !tbaa !135
  %5 = load ptr, ptr %3, align 8
  %6 = getelementptr inbounds nuw %"class.std::__shared_ptr", ptr %5, i32 0, i32 0
  %7 = load ptr, ptr %4, align 8, !tbaa !135
  store ptr %7, ptr %6, align 8, !tbaa !410
  %8 = getelementptr inbounds nuw %"class.std::__shared_ptr", ptr %5, i32 0, i32 1
  %9 = load ptr, ptr %4, align 8, !tbaa !135
  call void @_ZNSt14__shared_countILN9__gnu_cxx12_Lock_policyE2EEC2IPN2cv14StereoSGBMImplEEET_St17integral_constantIbLb0EE(ptr noundef nonnull align 8 dereferenceable(8) %8, ptr noundef %9)
  %10 = load ptr, ptr %4, align 8, !tbaa !135
  call void @_ZNSt12__shared_ptrIN2cv10StereoSGBMELN9__gnu_cxx12_Lock_policyE2EE31_M_enable_shared_from_this_withINS0_14StereoSGBMImplES6_EENSt9enable_ifIXntsr15__has_esft_baseIT0_EE5valueEvE4typeEPT_(ptr noundef nonnull align 8 dereferenceable(16) %5, ptr noundef %10) #3
  ret void
}

; Function Attrs: mustprogress uwtable
define linkonce_odr hidden void @_ZNSt10shared_ptrIN2cv10StereoSGBMEEC2INS0_14StereoSGBMImplEvEEPT_(ptr noundef nonnull align 8 dereferenceable(16) %0, ptr noundef %1) unnamed_addr #4 comdat align 2 {
  %3 = alloca ptr, align 8
  %4 = alloca ptr, align 8
  store ptr %0, ptr %3, align 8, !tbaa !406
  store ptr %1, ptr %4, align 8, !tbaa !135
  %5 = load ptr, ptr %3, align 8
  %6 = load ptr, ptr %4, align 8, !tbaa !135
  call void @_ZNSt12__shared_ptrIN2cv10StereoSGBMELN9__gnu_cxx12_Lock_policyE2EEC2INS0_14StereoSGBMImplEvEEPT_(ptr noundef nonnull align 8 dereferenceable(16) %5, ptr noundef %6)
  ret void
}

; Function Attrs: inlinehint mustprogress uwtable
define linkonce_odr hidden void @_ZN2cv13StereoMatcherC2Ev(ptr noundef nonnull align 8 dereferenceable(8) %0) unnamed_addr #10 comdat align 2 {
  %2 = alloca ptr, align 8
  store ptr %0, ptr %2, align 8, !tbaa !228
  %3 = load ptr, ptr %2, align 8
  call void @_ZN2cv9AlgorithmC2Ev(ptr noundef nonnull align 8 dereferenceable(8) %3)
  store ptr getelementptr inbounds inrange(-16, 168) ({ [23 x ptr] }, ptr @_ZTVN2cv13StereoMatcherE, i32 0, i32 0, i32 2), ptr %3, align 8, !tbaa !14
  ret void
}

; Function Attrs: inlinehint mustprogress uwtable
define linkonce_odr hidden void @_ZN2cv3PtrINS_10StereoSGBMEEC2INS_14StereoSGBMImplEEERKSt17integral_constantIbLb0EEPT_(ptr noundef nonnull align 8 dereferenceable(16) %0, ptr noundef nonnull align 1 dereferenceable(1) %1, ptr noundef %2) unnamed_addr #10 comdat align 2 {
  %4 = alloca ptr, align 8
  %5 = alloca ptr, align 8
  %6 = alloca ptr, align 8
  store ptr %0, ptr %4, align 8, !tbaa !137
  store ptr %1, ptr %5, align 8, !tbaa !404
  store ptr %2, ptr %6, align 8, !tbaa !135
  %7 = load ptr, ptr %4, align 8
  %8 = load ptr, ptr %6, align 8, !tbaa !135
  call void @_ZNSt10shared_ptrIN2cv10StereoSGBMEEC2INS0_14StereoSGBMImplEvEEPT_(ptr noundef nonnull align 8 dereferenceable(16) %7, ptr noundef %8)
  ret void
}

; Function Attrs: mustprogress nounwind uwtable
define linkonce_odr hidden void @_ZN2cv16StereoSGBMParamsC2Eiiiiiiiiiii(ptr noundef nonnull align 4 dereferenceable(44) %0, i32 noundef %1, i32 noundef %2, i32 noundef %3, i32 noundef %4, i32 noundef %5, i32 noundef %6, i32 noundef %7, i32 noundef %8, i32 noundef %9, i32 noundef %10, i32 noundef %11) unnamed_addr #7 comdat align 2 {
  %13 = alloca ptr, align 8
  %14 = alloca i32, align 4
  %15 = alloca i32, align 4
  %16 = alloca i32, align 4
  %17 = alloca i32, align 4
  %18 = alloca i32, align 4
  %19 = alloca i32, align 4
  %20 = alloca i32, align 4
  %21 = alloca i32, align 4
  %22 = alloca i32, align 4
  %23 = alloca i32, align 4
  %24 = alloca i32, align 4
  store ptr %0, ptr %13, align 8, !tbaa !10
  store i32 %1, ptr %14, align 4, !tbaa !12
  store i32 %2, ptr %15, align 4, !tbaa !12
  store i32 %3, ptr %16, align 4, !tbaa !12
  store i32 %4, ptr %17, align 4, !tbaa !12
  store i32 %5, ptr %18, align 4, !tbaa !12
  store i32 %6, ptr %19, align 4, !tbaa !12
  store i32 %7, ptr %20, align 4, !tbaa !12
  store i32 %8, ptr %21, align 4, !tbaa !12
  store i32 %9, ptr %22, align 4, !tbaa !12
  store i32 %10, ptr %23, align 4, !tbaa !12
  store i32 %11, ptr %24, align 4, !tbaa !12
  %25 = load ptr, ptr %13, align 8
  %26 = load i32, ptr %14, align 4, !tbaa !12
  %27 = getelementptr inbounds nuw %"struct.cv::StereoSGBMParams", ptr %25, i32 0, i32 0
  store i32 %26, ptr %27, align 4, !tbaa !48
  %28 = load i32, ptr %15, align 4, !tbaa !12
  %29 = getelementptr inbounds nuw %"struct.cv::StereoSGBMParams", ptr %25, i32 0, i32 1
  store i32 %28, ptr %29, align 4, !tbaa !51
  %30 = load i32, ptr %16, align 4, !tbaa !12
  %31 = getelementptr inbounds nuw %"struct.cv::StereoSGBMParams", ptr %25, i32 0, i32 2
  store i32 %30, ptr %31, align 4, !tbaa !58
  %32 = load i32, ptr %17, align 4, !tbaa !12
  %33 = getelementptr inbounds nuw %"struct.cv::StereoSGBMParams", ptr %25, i32 0, i32 5
  store i32 %32, ptr %33, align 4, !tbaa !61
  %34 = load i32, ptr %18, align 4, !tbaa !12
  %35 = getelementptr inbounds nuw %"struct.cv::StereoSGBMParams", ptr %25, i32 0, i32 6
  store i32 %34, ptr %35, align 4, !tbaa !63
  %36 = load i32, ptr %19, align 4, !tbaa !12
  %37 = getelementptr inbounds nuw %"struct.cv::StereoSGBMParams", ptr %25, i32 0, i32 9
  store i32 %36, ptr %37, align 4, !tbaa !67
  %38 = load i32, ptr %20, align 4, !tbaa !12
  %39 = getelementptr inbounds nuw %"struct.cv::StereoSGBMParams", ptr %25, i32 0, i32 3
  store i32 %38, ptr %39, align 4, !tbaa !201
  %40 = load i32, ptr %21, align 4, !tbaa !12
  %41 = getelementptr inbounds nuw %"struct.cv::StereoSGBMParams", ptr %25, i32 0, i32 4
  store i32 %40, ptr %41, align 4, !tbaa !65
  %42 = load i32, ptr %22, align 4, !tbaa !12
  %43 = getelementptr inbounds nuw %"struct.cv::StereoSGBMParams", ptr %25, i32 0, i32 7
  store i32 %42, ptr %43, align 4, !tbaa !202
  %44 = load i32, ptr %23, align 4, !tbaa !12
  %45 = getelementptr inbounds nuw %"struct.cv::StereoSGBMParams", ptr %25, i32 0, i32 8
  store i32 %44, ptr %45, align 4, !tbaa !203
  %46 = load i32, ptr %24, align 4, !tbaa !12
  %47 = getelementptr inbounds nuw %"struct.cv::StereoSGBMParams", ptr %25, i32 0, i32 10
  store i32 %46, ptr %47, align 4, !tbaa !204
  ret void
}

; Function Attrs: inlinehint mustprogress uwtable
define linkonce_odr hidden void @_ZN2cv10StereoSGBMC2Ev(ptr noundef nonnull align 8 dereferenceable(8) %0) unnamed_addr #10 comdat align 2 {
  %2 = alloca ptr, align 8
  store ptr %0, ptr %2, align 8, !tbaa !199
  %3 = load ptr, ptr %2, align 8
  call void @_ZN2cv13StereoMatcherC2Ev(ptr noundef nonnull align 8 dereferenceable(8) %3)
  store ptr getelementptr inbounds inrange(-16, 248) ({ [33 x ptr] }, ptr @_ZTVN2cv10StereoSGBME, i32 0, i32 0, i32 2), ptr %3, align 8, !tbaa !14
  ret void
}

; Function Attrs: inlinehint mustprogress uwtable
define linkonce_odr hidden void @_ZN2cv3PtrINS_10StereoSGBMEEC2INS_14StereoSGBMImplEEEPT_(ptr noundef nonnull align 8 dereferenceable(16) %0, ptr noundef %1) unnamed_addr #10 comdat align 2 {
  %3 = alloca ptr, align 8
  %4 = alloca ptr, align 8
  %5 = alloca %"struct.cv::has_custom_delete", align 1
  store ptr %0, ptr %3, align 8, !tbaa !137
  store ptr %1, ptr %4, align 8, !tbaa !135
  %6 = load ptr, ptr %3, align 8
  call void @llvm.lifetime.start.p0(i64 1, ptr %5) #3
  %7 = load ptr, ptr %4, align 8, !tbaa !135
  call void @_ZN2cv3PtrINS_10StereoSGBMEEC2INS_14StereoSGBMImplEEERKSt17integral_constantIbLb0EEPT_(ptr noundef nonnull align 8 dereferenceable(16) %6, ptr noundef nonnull align 1 dereferenceable(1) %5, ptr noundef %7)
  call void @llvm.lifetime.end.p0(i64 1, ptr %5) #3
  ret void
}

; Function Attrs: mustprogress uwtable
define linkonce_odr hidden void @_ZN2cv14StereoSGBMImplC2Eiiiiiiiiiii(ptr noundef nonnull align 8 dereferenceable(152) %0, i32 noundef %1, i32 noundef %2, i32 noundef %3, i32 noundef %4, i32 noundef %5, i32 noundef %6, i32 noundef %7, i32 noundef %8, i32 noundef %9, i32 noundef %10, i32 noundef %11) unnamed_addr #4 comdat align 2 personality ptr @__gxx_personality_v0 {
  %13 = alloca ptr, align 8
  %14 = alloca i32, align 4
  %15 = alloca i32, align 4
  %16 = alloca i32, align 4
  %17 = alloca i32, align 4
  %18 = alloca i32, align 4
  %19 = alloca i32, align 4
  %20 = alloca i32, align 4
  %21 = alloca i32, align 4
  %22 = alloca i32, align 4
  %23 = alloca i32, align 4
  %24 = alloca i32, align 4
  %25 = alloca ptr, align 8
  %26 = alloca i32, align 4
  store ptr %0, ptr %13, align 8, !tbaa !135
  store i32 %1, ptr %14, align 4, !tbaa !12
  store i32 %2, ptr %15, align 4, !tbaa !12
  store i32 %3, ptr %16, align 4, !tbaa !12
  store i32 %4, ptr %17, align 4, !tbaa !12
  store i32 %5, ptr %18, align 4, !tbaa !12
  store i32 %6, ptr %19, align 4, !tbaa !12
  store i32 %7, ptr %20, align 4, !tbaa !12
  store i32 %8, ptr %21, align 4, !tbaa !12
  store i32 %9, ptr %22, align 4, !tbaa !12
  store i32 %10, ptr %23, align 4, !tbaa !12
  store i32 %11, ptr %24, align 4, !tbaa !12
  %27 = load ptr, ptr %13, align 8
  call void @_ZN2cv10StereoSGBMC2Ev(ptr noundef nonnull align 8 dereferenceable(8) %27)
  store ptr getelementptr inbounds inrange(-16, 248) ({ [33 x ptr] }, ptr @_ZTVN2cv14StereoSGBMImplE, i32 0, i32 0, i32 2), ptr %27, align 8, !tbaa !14
  %28 = getelementptr inbounds nuw %"class.cv::StereoSGBMImpl", ptr %27, i32 0, i32 1
  %29 = load i32, ptr %14, align 4, !tbaa !12
  %30 = load i32, ptr %15, align 4, !tbaa !12
  %31 = load i32, ptr %16, align 4, !tbaa !12
  %32 = load i32, ptr %17, align 4, !tbaa !12
  %33 = load i32, ptr %18, align 4, !tbaa !12
  %34 = load i32, ptr %19, align 4, !tbaa !12
  %35 = load i32, ptr %20, align 4, !tbaa !12
  %36 = load i32, ptr %21, align 4, !tbaa !12
  %37 = load i32, ptr %22, align 4, !tbaa !12
  %38 = load i32, ptr %23, align 4, !tbaa !12
  %39 = load i32, ptr %24, align 4, !tbaa !12
  invoke void @_ZN2cv16StereoSGBMParamsC2Eiiiiiiiiiii(ptr noundef nonnull align 4 dereferenceable(44) %28, i32 noundef %29, i32 noundef %30, i32 noundef %31, i32 noundef %32, i32 noundef %33, i32 noundef %34, i32 noundef %35, i32 noundef %36, i32 noundef %37, i32 noundef %38, i32 noundef %39)
          to label %40 unwind label %42

40:                                               ; preds = %12
  %41 = getelementptr inbounds nuw %"class.cv::StereoSGBMImpl", ptr %27, i32 0, i32 2
  call void @_ZN2cv3MatC1Ev(ptr noundef nonnull align 8 dereferenceable(96) %41) #3
  ret void

42:                                               ; preds = %12
  %43 = landingpad { ptr, i32 }
          cleanup
  %44 = extractvalue { ptr, i32 } %43, 0
  store ptr %44, ptr %25, align 8
  %45 = extractvalue { ptr, i32 } %43, 1
  store i32 %45, ptr %26, align 4
  call void @_ZN2cv9AlgorithmD2Ev(ptr noundef nonnull align 8 dereferenceable(8) %27) #3
  br label %46

46:                                               ; preds = %42
  %47 = load ptr, ptr %25, align 8
  %48 = load i32, ptr %26, align 4
  %49 = insertvalue { ptr, i32 } poison, ptr %47, 0
  %50 = insertvalue { ptr, i32 } %49, i32 %48, 1
  resume { ptr, i32 } %50
}

; Function Attrs: mustprogress uwtable
define void @_ZN2cv10StereoSGBM6createEiiiiiiiiiii(ptr dead_on_unwind noalias writable sret(%"struct.cv::Ptr") align 8 %0, i32 noundef %1, i32 noundef %2, i32 noundef %3, i32 noundef %4, i32 noundef %5, i32 noundef %6, i32 noundef %7, i32 noundef %8, i32 noundef %9, i32 noundef %10, i32 noundef %11) #4 align 2 personality ptr @__gxx_personality_v0 {
  %13 = alloca ptr, align 8
  %14 = alloca i32, align 4
  %15 = alloca i32, align 4
  %16 = alloca i32, align 4
  %17 = alloca i32, align 4
  %18 = alloca i32, align 4
  %19 = alloca i32, align 4
  %20 = alloca i32, align 4
  %21 = alloca i32, align 4
  %22 = alloca i32, align 4
  %23 = alloca i32, align 4
  %24 = alloca i32, align 4
  %25 = alloca ptr, align 8
  %26 = alloca i32, align 4
  store ptr %0, ptr %13, align 8
  store i32 %1, ptr %14, align 4, !tbaa !12
  store i32 %2, ptr %15, align 4, !tbaa !12
  store i32 %3, ptr %16, align 4, !tbaa !12
  store i32 %4, ptr %17, align 4, !tbaa !12
  store i32 %5, ptr %18, align 4, !tbaa !12
  store i32 %6, ptr %19, align 4, !tbaa !12
  store i32 %7, ptr %20, align 4, !tbaa !12
  store i32 %8, ptr %21, align 4, !tbaa !12
  store i32 %9, ptr %22, align 4, !tbaa !12
  store i32 %10, ptr %23, align 4, !tbaa !12
  store i32 %11, ptr %24, align 4, !tbaa !12
  %27 = call noalias noundef nonnull ptr @_Znwm(i64 noundef 152) #22
  %28 = load i32, ptr %14, align 4, !tbaa !12
  %29 = load i32, ptr %15, align 4, !tbaa !12
  %30 = load i32, ptr %16, align 4, !tbaa !12
  %31 = load i32, ptr %17, align 4, !tbaa !12
  %32 = load i32, ptr %18, align 4, !tbaa !12
  %33 = load i32, ptr %19, align 4, !tbaa !12
  %34 = load i32, ptr %20, align 4, !tbaa !12
  %35 = load i32, ptr %21, align 4, !tbaa !12
  %36 = load i32, ptr %22, align 4, !tbaa !12
  %37 = load i32, ptr %23, align 4, !tbaa !12
  %38 = load i32, ptr %24, align 4, !tbaa !12
  invoke void @_ZN2cv14StereoSGBMImplC2Eiiiiiiiiiii(ptr noundef nonnull align 8 dereferenceable(152) %27, i32 noundef %28, i32 noundef %29, i32 noundef %30, i32 noundef %31, i32 noundef %32, i32 noundef %33, i32 noundef %34, i32 noundef %35, i32 noundef %36, i32 noundef %37, i32 noundef %38)
          to label %39 unwind label %40

39:                                               ; preds = %12
  call void @_ZN2cv3PtrINS_10StereoSGBMEEC2INS_14StereoSGBMImplEEEPT_(ptr noundef nonnull align 8 dereferenceable(16) %0, ptr noundef %27)
  ret void

40:                                               ; preds = %12
  %41 = landingpad { ptr, i32 }
          cleanup
  %42 = extractvalue { ptr, i32 } %41, 0
  store ptr %42, ptr %25, align 8
  %43 = extractvalue { ptr, i32 } %41, 1
  store i32 %43, ptr %26, align 4
  call void @_ZdlPv(ptr noundef %27) #23
  br label %44

44:                                               ; preds = %40
  %45 = load ptr, ptr %25, align 8
  %46 = load i32, ptr %26, align 4
  %47 = insertvalue { ptr, i32 } poison, ptr %45, 0
  %48 = insertvalue { ptr, i32 } %47, i32 %46, 1
  resume { ptr, i32 } %48
}