; Function Attrs: mustprogress uwtable
define void @_ZN2cv10StereoSGBM6createEiiiiiiiiiii(ptr dead_on_unwind noalias writable sret(%"struct.cv::Ptr") align 8 %0, i32 noundef %1, i32 noundef %2, i32 noundef %3, i32 noundef %4, i32 noundef %5, i32 noundef %6, i32 noundef %7, i32 noundef %8, i32 noundef %9, i32 noundef %10, i32 noundef %11) local_unnamed_addr #3 align 2 personality ptr @__gxx_personality_v0 {
  %13 = tail call noalias noundef nonnull dereferenceable(152) ptr @_Znwm(i64 noundef 152) #28
  invoke void @_ZN2cv9AlgorithmC2Ev(ptr noundef nonnull align 8 dereferenceable(152) %13)
          to label %14 unwind label %28

14:                                               ; preds = %12
  store ptr getelementptr inbounds nuw inrange(-16, 248) (i8, ptr @_ZTVN2cv14StereoSGBMImplE, i64 16), ptr %13, align 8, !tbaa !3
  %15 = getelementptr inbounds nuw i8, ptr %13, i64 8
  store i32 %1, ptr %15, align 4, !tbaa !40
  %16 = getelementptr inbounds nuw i8, ptr %13, i64 12
  store i32 %2, ptr %16, align 4, !tbaa !43
  %17 = getelementptr inbounds nuw i8, ptr %13, i64 16
  store i32 %3, ptr %17, align 4, !tbaa !50
  %18 = getelementptr inbounds nuw i8, ptr %13, i64 28
  store i32 %4, ptr %18, align 4, !tbaa !53
  %19 = getelementptr inbounds nuw i8, ptr %13, i64 32
  store i32 %5, ptr %19, align 4, !tbaa !55
  %20 = getelementptr inbounds nuw i8, ptr %13, i64 44
  store i32 %6, ptr %20, align 4, !tbaa !59
  %21 = getelementptr inbounds nuw i8, ptr %13, i64 20
  store i32 %7, ptr %21, align 4, !tbaa !134
  %22 = getelementptr inbounds nuw i8, ptr %13, i64 24
  store i32 %8, ptr %22, align 4, !tbaa !57
  %23 = getelementptr inbounds nuw i8, ptr %13, i64 36
  store i32 %9, ptr %23, align 4, !tbaa !135
  %24 = getelementptr inbounds nuw i8, ptr %13, i64 40
  store i32 %10, ptr %24, align 4, !tbaa !136
  %25 = getelementptr inbounds nuw i8, ptr %13, i64 48
  store i32 %11, ptr %25, align 4, !tbaa !137
  %26 = getelementptr inbounds nuw i8, ptr %13, i64 56
  tail call void @_ZN2cv3MatC1Ev(ptr noundef nonnull align 8 dereferenceable(96) %26) #25
  store ptr %13, ptr %0, align 8, !tbaa !138
  %27 = getelementptr inbounds nuw i8, ptr %0, i64 8
  tail call void @_ZNSt14__shared_countILN9__gnu_cxx12_Lock_policyE2EEC2IPN2cv14StereoSGBMImplEEET_(ptr noundef nonnull align 8 dereferenceable(8) %27, ptr noundef nonnull %13)
  ret void

28:                                               ; preds = %12
  %29 = landingpad { ptr, i32 }
          cleanup
  tail call void @_ZdlPv(ptr noundef nonnull %13) #27
  resume { ptr, i32 } %29
}